; Function Attrs: mustprogress nofree nounwind willreturn memory(argmem: read) uwtable
define noundef zeroext i1 @_ZN9grpc_core10XdsRouting20IsValidDomainPatternESt17basic_string_viewIcSt11char_traitsIcEE(i64 %0, ptr %1) local_unnamed_addr #8 align 2 personality ptr @__gxx_personality_v0 {
  %3 = icmp eq i64 %0, 0
  br i1 %3, label %_ZN9grpc_core12_GLOBAL__N_122DomainPatternMatchTypeESt17basic_string_viewIcSt11char_traitsIcEE.exit, label %_ZN4absl12lts_2024072211StrContainsESt17basic_string_viewIcSt11char_traitsIcEEc.exit.i

_ZN4absl12lts_2024072211StrContainsESt17basic_string_viewIcSt11char_traitsIcEEc.exit.i: ; preds = %2
  %4 = tail call ptr @memchr(ptr noundef %1, i32 noundef 42, i64 noundef %0) #28
  %.not.i.i.i = icmp ne ptr %4, null
  %5 = ptrtoint ptr %4 to i64
  %6 = ptrtoint ptr %1 to i64
  %7 = sub i64 %5, %6
  %8 = icmp ne i64 %7, -1
  %9 = select i1 %.not.i.i.i, i1 %8, i1 false
  br i1 %9, label %10, label %_ZN9grpc_core12_GLOBAL__N_122DomainPatternMatchTypeESt17basic_string_viewIcSt11char_traitsIcEE.exit

10:                                               ; preds = %_ZN4absl12lts_2024072211StrContainsESt17basic_string_viewIcSt11char_traitsIcEEc.exit.i
  %lhsc.i = load i8, ptr %1, align 1
  %11 = icmp eq i8 %lhsc.i, 42
  br i1 %11, label %_ZN9grpc_core12_GLOBAL__N_122DomainPatternMatchTypeESt17basic_string_viewIcSt11char_traitsIcEE.exit, label %.thread.i

.thread.i:                                        ; preds = %10
  %12 = getelementptr i8, ptr %1, i64 %0
  %13 = getelementptr i8, ptr %12, i64 -1
  %14 = load i8, ptr %13, align 1, !tbaa !16
  %15 = icmp eq i8 %14, 42
  br label %_ZN9grpc_core12_GLOBAL__N_122DomainPatternMatchTypeESt17basic_string_viewIcSt11char_traitsIcEE.exit

_ZN9grpc_core12_GLOBAL__N_122DomainPatternMatchTypeESt17basic_string_viewIcSt11char_traitsIcEE.exit: ; preds = %2, %_ZN4absl12lts_2024072211StrContainsESt17basic_string_viewIcSt11char_traitsIcEEc.exit.i, %10, %.thread.i
  %.0.i = phi i1 [ false, %2 ], [ true, %_ZN4absl12lts_2024072211StrContainsESt17basic_string_viewIcSt11char_traitsIcEEc.exit.i ], [ %15, %.thread.i ], [ true, %10 ]
  ret i1 %.0.i
}